; Function Attrs: nounwind uwtable
define dso_local ptr @ExecGetTriggerOldSlot(ptr noundef %0, ptr noundef captures(none) %1) local_unnamed_addr #0 {
  %3 = getelementptr inbounds nuw i8, ptr %1, i64 136
  %4 = load ptr, ptr %3, align 8
  %5 = icmp eq ptr %4, null
  br i1 %5, label %6, label %16

6:                                                ; preds = %2
  %7 = getelementptr inbounds nuw i8, ptr %1, i64 8
  %8 = load ptr, ptr %7, align 8
  %9 = getelementptr inbounds nuw i8, ptr %0, i64 192
  %10 = load ptr, ptr %9, align 8
  %11 = load ptr, ptr @CurrentMemoryContext, align 8
  store ptr %10, ptr @CurrentMemoryContext, align 8
  %12 = getelementptr inbounds nuw i8, ptr %8, i64 64
  %13 = load ptr, ptr %12, align 8
  %14 = tail call ptr @table_slot_callbacks(ptr noundef %8) #12
  %15 = tail call ptr @ExecInitExtraTupleSlot(ptr noundef %0, ptr noundef %13, ptr noundef %14) #12
  store ptr %15, ptr %3, align 8
  store ptr %11, ptr @CurrentMemoryContext, align 8
  br label %16

16:                                               ; preds = %6, %2
  %17 = phi ptr [ %15, %6 ], [ %4, %2 ]
  ret ptr %17
}